; Function Attrs: nounwind uwtable
define internal range(i32 -2147483648, 1) i32 @asf_write_header(ptr noundef initializes((120, 124), (248, 256)) %0) #0 {
  %2 = getelementptr inbounds nuw i8, ptr %0, i64 24
  %3 = load ptr, ptr %2, align 8, !tbaa !4
  %4 = getelementptr inbounds nuw i8, ptr %3, i64 67992
  %5 = load i32, ptr %4, align 8, !tbaa !24
  %6 = getelementptr inbounds nuw i8, ptr %0, i64 120
  store i32 %5, ptr %6, align 8, !tbaa !30
  %7 = getelementptr inbounds nuw i8, ptr %0, i64 248
  store i64 0, ptr %7, align 8, !tbaa !31
  %8 = getelementptr inbounds nuw i8, ptr %3, i64 2080
  store i64 0, ptr %8, align 8, !tbaa !32
  %9 = getelementptr inbounds nuw i8, ptr %0, i64 44
  %10 = load i32, ptr %9, align 4, !tbaa !33
  %11 = icmp ugt i32 %10, 127
  br i1 %11, label %12, label %13

12:                                               ; preds = %1
  tail call void (ptr, i32, ptr, ...) @av_log(ptr noundef nonnull %0, i32 noundef 16, ptr noundef nonnull @.str.10) #8
  br label %31

13:                                               ; preds = %1
  %14 = tail call noalias ptr @av_malloc(i64 noundef 12288) #8
  %15 = getelementptr inbounds nuw i8, ptr %3, i64 67952
  store ptr %14, ptr %15, align 8, !tbaa !34
  %.not = icmp eq ptr %14, null
  br i1 %.not, label %31, label %16

16:                                               ; preds = %13
  %17 = getelementptr inbounds nuw i8, ptr %3, i64 67960
  store i32 512, ptr %17, align 8, !tbaa !35
  %18 = getelementptr inbounds nuw i8, ptr %3, i64 67964
  store i16 0, ptr %18, align 4, !tbaa !36
  %19 = tail call fastcc i32 @asf_write_header1(ptr noundef nonnull %0, i64 noundef 0, i64 noundef 50)
  %20 = icmp slt i32 %19, 0
  br i1 %20, label %31, label %21

21:                                               ; preds = %16
  %22 = getelementptr inbounds nuw i8, ptr %3, i64 2120
  store i32 0, ptr %22, align 8, !tbaa !37
  %23 = getelementptr inbounds nuw i8, ptr %3, i64 2104
  %24 = getelementptr inbounds nuw i8, ptr %3, i64 67664
  %25 = getelementptr inbounds nuw i8, ptr %3, i64 2124
  tail call void @llvm.memset.p0.i64(ptr noundef nonnull align 8 dereferenceable(16) %23, i8 -1, i64 16, i1 false)
  %26 = load i32, ptr %6, align 8, !tbaa !30
  tail call void @ffio_init_write_context(ptr noundef nonnull %24, ptr noundef nonnull %25, i32 noundef %26) #8
  %27 = getelementptr inbounds nuw i8, ptr %0, i64 280
  %28 = load i32, ptr %27, align 8, !tbaa !38
  %29 = icmp slt i32 %28, 0
  br i1 %29, label %30, label %31

30:                                               ; preds = %21
  store i32 1, ptr %27, align 8, !tbaa !38
  br label %31

31:                                               ; preds = %21, %30, %16, %13, %12
  %.0 = phi i32 [ -22, %12 ], [ -12, %13 ], [ %19, %16 ], [ 0, %30 ], [ 0, %21 ]
  ret i32 %.0
}